target datalayout = "e-m:e-p270:32:32-p271:32:32-p272:64:64-i64:64-i128:128-f80:128-n8:16:32:64-S128"
target triple = "x86_64-unknown-linux-gnu"

%struct.QTailQLink = type { ptr, ptr }
%struct.BlockDriverState = type { i32, i8, i8, i8, i8, i8, ptr, ptr, ptr, %struct.anon.0, i8, [4096 x i8], [4096 x i8], [4096 x i8], [16 x i8], ptr, [4096 x i8], %struct.BlockLimits, i32, i32, i32, i32, [32 x i8], %union.anon, %union.anon.1, %union.anon.2, i32, [16 x %struct.anon.3], ptr, %struct.anon.4, ptr, ptr, %struct.anon.5, ptr, ptr, i32, ptr, i64, i64, %struct.QemuMutex, %struct.anon.6, %struct.Stat64, i32, i32, i32, i32, i32, i32, %struct.QemuMutex, %struct.anon.7, %struct.CoQueue, i8, i32, i8, %struct.CoMutex, ptr, ptr }
%struct.anon.0 = type { ptr }
%struct.BlockLimits = type { i32, i64, i32, i64, i32, i32, i32, i64, i32, i64, i64, i32, i8, i32, i32, i32, i32, i32, i32, i32 }
%union.anon = type { %struct.QTailQLink }
%union.anon.1 = type { %struct.QTailQLink }
%union.anon.2 = type { %struct.QTailQLink }
%struct.anon.3 = type { ptr }
%struct.anon.4 = type { ptr }
%struct.anon.5 = type { ptr }
%struct.anon.6 = type { ptr }
%struct.Stat64 = type { i64 }
%struct.QemuMutex = type { %union.pthread_mutex_t, i8 }
%union.pthread_mutex_t = type { %struct.__pthread_mutex_s }
%struct.__pthread_mutex_s = type { i32, i32, i32, i32, i32, i16, i16, %struct.__pthread_internal_list }
%struct.__pthread_internal_list = type { ptr, ptr }
%struct.anon.7 = type { ptr }
%struct.CoQueue = type { %struct.anon.8 }
%struct.anon.8 = type { ptr, ptr }
%struct.CoMutex = type { i32, ptr, %struct.anon.9, %struct.anon.9, i32, i32, ptr }
%struct.anon.9 = type { ptr }
%struct.BDRVReplicationState = type { i32, i32, ptr, ptr, ptr, ptr, ptr, ptr, ptr, i8, i8, i32 }
%struct.ReplicationState = type { ptr, ptr, %struct.anon.11 }
%struct.anon.11 = type { ptr, ptr }

@.str.4 = private unnamed_addr constant [28 x i8] c"../qemu/block/replication.c\00", align 1
@.str.29 = private unnamed_addr constant [33 x i8] c"Block replication is not running\00", align 1
@__func__.replication_get_error = private unnamed_addr constant [22 x i8] c"replication_get_error\00", align 1
@.str.30 = private unnamed_addr constant [19 x i8] c"I/O error occurred\00", align 1

; Function Attrs: nounwind sspstrong uwtable
define internal void @replication_get_error(ptr noundef %rs, ptr noundef %errp) #0 {
entry:
  %rs.addr = alloca ptr, align 8
  %errp.addr = alloca ptr, align 8
  %bs = alloca ptr, align 8
  %s = alloca ptr, align 8
  %aio_context = alloca ptr, align 8
  store ptr %rs, ptr %rs.addr, align 8
  store ptr %errp, ptr %errp.addr, align 8
  %0 = load ptr, ptr %rs.addr, align 8
  %opaque = getelementptr inbounds %struct.ReplicationState, ptr %0, i32 0, i32 0
  %1 = load ptr, ptr %opaque, align 8
  store ptr %1, ptr %bs, align 8
  %2 = load ptr, ptr %bs, align 8
  %call = call ptr @bdrv_get_aio_context(ptr noundef %2)
  store ptr %call, ptr %aio_context, align 8
  %3 = load ptr, ptr %aio_context, align 8
  call void @aio_context_acquire(ptr noundef %3)
  %4 = load ptr, ptr %bs, align 8
  %opaque1 = getelementptr inbounds %struct.BlockDriverState, ptr %4, i32 0, i32 7
  %5 = load ptr, ptr %opaque1, align 8
  store ptr %5, ptr %s, align 8
  %6 = load ptr, ptr %s, align 8
  %stage = getelementptr inbounds %struct.BDRVReplicationState, ptr %6, i32 0, i32 1
  %7 = load i32, ptr %stage, align 4
  %cmp = icmp eq i32 %7, 0
  br i1 %cmp, label %if.then, label %if.end

if.then:                                          ; preds = %entry
  %8 = load ptr, ptr %errp.addr, align 8
  call void (ptr, ptr, i32, ptr, ptr, ...) @error_setg_internal(ptr noundef %8, ptr noundef @.str.4, i32 noundef 673, ptr noundef @__func__.replication_get_error, ptr noundef @.str.29)
  %9 = load ptr, ptr %aio_context, align 8
  call void @aio_context_release(ptr noundef %9)
  br label %return

if.end:                                           ; preds = %entry
  %10 = load ptr, ptr %s, align 8
  %error = getelementptr inbounds %struct.BDRVReplicationState, ptr %10, i32 0, i32 11
  %11 = load i32, ptr %error, align 4
  %tobool = icmp ne i32 %11, 0
  br i1 %tobool, label %if.then2, label %if.end3

if.then2:                                         ; preds = %if.end
  %12 = load ptr, ptr %errp.addr, align 8
  call void (ptr, ptr, i32, ptr, ptr, ...) @error_setg_internal(ptr noundef %12, ptr noundef @.str.4, i32 noundef 679, ptr noundef @__func__.replication_get_error, ptr noundef @.str.30)
  %13 = load ptr, ptr %aio_context, align 8
  call void @aio_context_release(ptr noundef %13)
  br label %return

if.end3:                                          ; preds = %if.end
  %14 = load ptr, ptr %aio_context, align 8
  call void @aio_context_release(ptr noundef %14)
  br label %return

return:                                           ; preds = %if.end3, %if.then2, %if.then
  ret void
}