; Function Attrs: nounwind sspstrong uwtable
define internal void @replication_get_error(ptr noundef readonly captures(none) %rs, ptr noundef %errp) #0 {
entry:
  %0 = load ptr, ptr %rs, align 8
  %call = tail call ptr @bdrv_get_aio_context(ptr noundef %0) #8
  tail call void @aio_context_acquire(ptr noundef %call) #8
  %opaque1 = getelementptr inbounds nuw i8, ptr %0, i64 24
  %1 = load ptr, ptr %opaque1, align 8
  %stage = getelementptr inbounds nuw i8, ptr %1, i64 4
  %2 = load i32, ptr %stage, align 4
  %cmp = icmp eq i32 %2, 0
  br i1 %cmp, label %if.then, label %if.end

if.then:                                          ; preds = %entry
  tail call void (ptr, ptr, i32, ptr, ptr, ...) @error_setg_internal(ptr noundef %errp, ptr noundef nonnull @.str.4, i32 noundef 673, ptr noundef nonnull @__func__.replication_get_error, ptr noundef nonnull @.str.29) #8
  br label %return

if.end:                                           ; preds = %entry
  %error = getelementptr inbounds nuw i8, ptr %1, i64 68
  %3 = load i32, ptr %error, align 4
  %tobool.not = icmp eq i32 %3, 0
  br i1 %tobool.not, label %return, label %if.then2

if.then2:                                         ; preds = %if.end
  tail call void (ptr, ptr, i32, ptr, ptr, ...) @error_setg_internal(ptr noundef %errp, ptr noundef nonnull @.str.4, i32 noundef 679, ptr noundef nonnull @__func__.replication_get_error, ptr noundef nonnull @.str.30) #8
  br label %return

return:                                           ; preds = %if.end, %if.then2, %if.then
  tail call void @aio_context_release(ptr noundef %call) #8
  ret void
}